target datalayout = "e-m:e-p270:32:32-p271:32:32-p272:64:64-i64:64-i128:128-f80:128-n8:16:32:64-S128"
target triple = "x86_64-pc-linux-gnu"

%"class.VrmlTranslator::Buffer" = type <{ ptr, ptr, i32, i32, i32, i32, i32, [4 x i8], ptr, i8, [7 x i8] }>

; Function Attrs: mustprogress uwtable
define void @_ZN14VrmlTranslator6Buffer5CloseEv(ptr noundef nonnull align 8 dereferenceable(49) %0) unnamed_addr #1 align 2 {
  %2 = alloca ptr, align 8
  store ptr %0, ptr %2, align 8
  %3 = load ptr, ptr %2, align 8
  %4 = getelementptr inbounds %"class.VrmlTranslator::Buffer", ptr %3, i32 0, i32 9
  %5 = load i8, ptr %4, align 8
  %6 = trunc i8 %5 to i1
  br i1 %6, label %16, label %7

7:                                                ; preds = %1
  %8 = getelementptr inbounds %"class.VrmlTranslator::Buffer", ptr %3, i32 0, i32 8
  %9 = load ptr, ptr %8, align 8
  %10 = icmp ne ptr %9, null
  br i1 %10, label %11, label %16

11:                                               ; preds = %7
  %12 = getelementptr inbounds %"class.VrmlTranslator::Buffer", ptr %3, i32 0, i32 8
  %13 = load ptr, ptr %12, align 8
  %14 = call i32 @fclose(ptr noundef %13)
  %15 = getelementptr inbounds %"class.VrmlTranslator::Buffer", ptr %3, i32 0, i32 8
  store ptr null, ptr %15, align 8
  br label %16

16:                                               ; preds = %11, %7, %1
  ret void
}