; Function Attrs: mustprogress nofree nounwind uwtable
define void @_ZN14VrmlTranslator6Buffer5CloseEv(ptr nocapture noundef nonnull align 8 dereferenceable(49) %0) unnamed_addr #1 align 2 {
  %2 = getelementptr inbounds i8, ptr %0, i64 48
  %3 = load i8, ptr %2, align 8
  %4 = and i8 %3, 1
  %.not = icmp eq i8 %4, 0
  br i1 %.not, label %5, label %10

5:                                                ; preds = %1
  %6 = getelementptr inbounds i8, ptr %0, i64 40
  %7 = load ptr, ptr %6, align 8
  %.not1 = icmp eq ptr %7, null
  br i1 %.not1, label %10, label %8

8:                                                ; preds = %5
  %9 = tail call i32 @fclose(ptr noundef nonnull %7)
  store ptr null, ptr %6, align 8
  br label %10

10:                                               ; preds = %8, %5, %1
  ret void
}